; Function Attrs: mustprogress nounwind uwtable
define void @_ZN3zmq11mechanism_tD2Ev(ptr noundef nonnull align 8 dereferenceable(1488) initializes((0, 8)) %0) unnamed_addr #2 align 2 personality ptr @__gxx_personality_v0 {
  store ptr getelementptr inbounds nuw inrange(-16, 72) (i8, ptr @_ZTVN3zmq11mechanism_tE, i64 16), ptr %0, align 8, !tbaa !3
  %2 = getelementptr inbounds nuw i8, ptr %0, i64 1480
  %3 = load i8, ptr %2, align 8, !tbaa !18, !range !82, !noundef !83
  %4 = trunc nuw i8 %3 to i1
  br i1 %4, label %5, label %_ZN3zmq6blob_tD2Ev.exit

5:                                                ; preds = %1
  %6 = getelementptr inbounds nuw i8, ptr %0, i64 1464
  %7 = load ptr, ptr %6, align 8, !tbaa !90
  tail call void @free(ptr noundef %7) #27
  br label %_ZN3zmq6blob_tD2Ev.exit

_ZN3zmq6blob_tD2Ev.exit:                          ; preds = %1, %5
  %8 = getelementptr inbounds nuw i8, ptr %0, i64 1456
  %9 = load i8, ptr %8, align 8, !tbaa !18, !range !82, !noundef !83
  %10 = trunc nuw i8 %9 to i1
  br i1 %10, label %11, label %_ZN3zmq6blob_tD2Ev.exit1

11:                                               ; preds = %_ZN3zmq6blob_tD2Ev.exit
  %12 = getelementptr inbounds nuw i8, ptr %0, i64 1440
  %13 = load ptr, ptr %12, align 8, !tbaa !90
  tail call void @free(ptr noundef %13) #27
  br label %_ZN3zmq6blob_tD2Ev.exit1

_ZN3zmq6blob_tD2Ev.exit1:                         ; preds = %_ZN3zmq6blob_tD2Ev.exit, %11
  %14 = getelementptr inbounds nuw i8, ptr %0, i64 1392
  %15 = getelementptr inbounds nuw i8, ptr %0, i64 1408
  %16 = load ptr, ptr %15, align 8, !tbaa !14
  invoke void @_ZNSt8_Rb_treeINSt7__cxx1112basic_stringIcSt11char_traitsIcESaIcEEESt4pairIKS5_S5_ESt10_Select1stIS8_ESt4lessIS5_ESaIS8_EE8_M_eraseEPSt13_Rb_tree_nodeIS8_E(ptr noundef nonnull align 8 dereferenceable(48) %14, ptr noundef %16)
          to label %_ZNSt3mapINSt7__cxx1112basic_stringIcSt11char_traitsIcESaIcEEES5_St4lessIS5_ESaISt4pairIKS5_S5_EEED2Ev.exit unwind label %17

17:                                               ; preds = %_ZN3zmq6blob_tD2Ev.exit1
  %18 = landingpad { ptr, i32 }
          catch ptr null
  %19 = extractvalue { ptr, i32 } %18, 0
  tail call void @__clang_call_terminate(ptr %19) #31
  unreachable

_ZNSt3mapINSt7__cxx1112basic_stringIcSt11char_traitsIcESaIcEEES5_St4lessIS5_ESaISt4pairIKS5_S5_EEED2Ev.exit: ; preds = %_ZN3zmq6blob_tD2Ev.exit1
  %20 = getelementptr inbounds nuw i8, ptr %0, i64 1344
  %21 = getelementptr inbounds nuw i8, ptr %0, i64 1360
  %22 = load ptr, ptr %21, align 8, !tbaa !14
  invoke void @_ZNSt8_Rb_treeINSt7__cxx1112basic_stringIcSt11char_traitsIcESaIcEEESt4pairIKS5_S5_ESt10_Select1stIS8_ESt4lessIS5_ESaIS8_EE8_M_eraseEPSt13_Rb_tree_nodeIS8_E(ptr noundef nonnull align 8 dereferenceable(48) %20, ptr noundef %22)
          to label %_ZNSt3mapINSt7__cxx1112basic_stringIcSt11char_traitsIcESaIcEEES5_St4lessIS5_ESaISt4pairIKS5_S5_EEED2Ev.exit2 unwind label %23

23:                                               ; preds = %_ZNSt3mapINSt7__cxx1112basic_stringIcSt11char_traitsIcESaIcEEES5_St4lessIS5_ESaISt4pairIKS5_S5_EEED2Ev.exit
  %24 = landingpad { ptr, i32 }
          catch ptr null
  %25 = extractvalue { ptr, i32 } %24, 0
  tail call void @__clang_call_terminate(ptr %25) #31
  unreachable

_ZNSt3mapINSt7__cxx1112basic_stringIcSt11char_traitsIcESaIcEEES5_St4lessIS5_ESaISt4pairIKS5_S5_EEED2Ev.exit2: ; preds = %_ZNSt3mapINSt7__cxx1112basic_stringIcSt11char_traitsIcESaIcEEES5_St4lessIS5_ESaISt4pairIKS5_S5_EEED2Ev.exit
  %26 = getelementptr inbounds nuw i8, ptr %0, i64 8
  tail call void @_ZN3zmq9options_tD2Ev(ptr noundef nonnull align 8 dereferenceable(1336) %26) #27
  ret void
}